target datalayout = "e-m:e-p270:32:32-p271:32:32-p272:64:64-i64:64-i128:128-f80:128-n8:16:32:64-S128"
target triple = "x86_64-pc-linux-gnu"

%struct.assoc_mgr_info_request_msg_t = type { ptr, i32, ptr, ptr }

; Function Attrs: nounwind uwtable
define internal void @_pack_assoc_mgr_info_request_msg(ptr noundef %0, ptr noundef %1, i16 noundef zeroext %2) #0 {
  %4 = alloca ptr, align 8
  %5 = alloca ptr, align 8
  %6 = alloca i16, align 2
  %7 = alloca i32, align 4
  %8 = alloca ptr, align 8
  %9 = alloca ptr, align 8
  %10 = alloca i32, align 4
  %11 = alloca i32, align 4
  %12 = alloca i32, align 4
  store ptr %0, ptr %4, align 8
  store ptr %1, ptr %5, align 8
  store i16 %2, ptr %6, align 2
  call void @llvm.lifetime.start.p0(i64 4, ptr %7) #6
  store i32 -2, ptr %7, align 4
  call void @llvm.lifetime.start.p0(i64 8, ptr %8) #6
  store ptr null, ptr %8, align 8
  call void @llvm.lifetime.start.p0(i64 8, ptr %9) #6
  store ptr null, ptr %9, align 8
  %13 = load ptr, ptr %4, align 8
  %14 = getelementptr inbounds nuw %struct.assoc_mgr_info_request_msg_t, ptr %13, i32 0, i32 0
  %15 = load ptr, ptr %14, align 8
  %16 = icmp ne ptr %15, null
  br i1 %16, label %17, label %23

17:                                               ; preds = %3
  %18 = load ptr, ptr %4, align 8
  %19 = getelementptr inbounds nuw %struct.assoc_mgr_info_request_msg_t, ptr %18, i32 0, i32 0
  %20 = load ptr, ptr %19, align 8
  %21 = call i32 @list_count(ptr noundef %20)
  store i32 %21, ptr %7, align 4
  %22 = icmp ne i32 %21, 0
  br i1 %22, label %24, label %23

23:                                               ; preds = %17, %3
  store i32 -2, ptr %7, align 4
  br label %24

24:                                               ; preds = %23, %17
  %25 = load i32, ptr %7, align 4
  %26 = load ptr, ptr %5, align 8
  call void @pack32(i32 noundef %25, ptr noundef %26)
  %27 = load i32, ptr %7, align 4
  %28 = icmp ne i32 %27, -2
  br i1 %28, label %29, label %55

29:                                               ; preds = %24
  %30 = load ptr, ptr %4, align 8
  %31 = getelementptr inbounds nuw %struct.assoc_mgr_info_request_msg_t, ptr %30, i32 0, i32 0
  %32 = load ptr, ptr %31, align 8
  %33 = call ptr @list_iterator_create(ptr noundef %32)
  store ptr %33, ptr %9, align 8
  br label %34

34:                                               ; preds = %52, %29
  %35 = load ptr, ptr %9, align 8
  %36 = call ptr @list_next(ptr noundef %35)
  store ptr %36, ptr %8, align 8
  %37 = icmp ne ptr %36, null
  br i1 %37, label %38, label %53

38:                                               ; preds = %34
  br label %39

39:                                               ; preds = %38
  call void @llvm.lifetime.start.p0(i64 4, ptr %10) #6
  store i32 0, ptr %10, align 4
  %40 = load ptr, ptr %8, align 8
  %41 = icmp ne ptr %40, null
  br i1 %41, label %42, label %47

42:                                               ; preds = %39
  %43 = load ptr, ptr %8, align 8
  %44 = call i64 @strlen(ptr noundef %43) #7
  %45 = trunc i64 %44 to i32
  %46 = add i32 %45, 1
  store i32 %46, ptr %10, align 4
  br label %47

47:                                               ; preds = %42, %39
  %48 = load ptr, ptr %8, align 8
  %49 = load i32, ptr %10, align 4
  %50 = load ptr, ptr %5, align 8
  call void @packmem(ptr noundef %48, i32 noundef %49, ptr noundef %50)
  call void @llvm.lifetime.end.p0(i64 4, ptr %10) #6
  br label %51

51:                                               ; preds = %47
  br label %52

52:                                               ; preds = %51
  br label %34, !llvm.loop !56

53:                                               ; preds = %34
  %54 = load ptr, ptr %9, align 8
  call void @list_iterator_destroy(ptr noundef %54)
  br label %55

55:                                               ; preds = %53, %24
  %56 = load ptr, ptr %4, align 8
  %57 = getelementptr inbounds nuw %struct.assoc_mgr_info_request_msg_t, ptr %56, i32 0, i32 1
  %58 = load i32, ptr %57, align 8
  %59 = load ptr, ptr %5, align 8
  call void @pack32(i32 noundef %58, ptr noundef %59)
  %60 = load ptr, ptr %4, align 8
  %61 = getelementptr inbounds nuw %struct.assoc_mgr_info_request_msg_t, ptr %60, i32 0, i32 2
  %62 = load ptr, ptr %61, align 8
  %63 = icmp ne ptr %62, null
  br i1 %63, label %64, label %70

64:                                               ; preds = %55
  %65 = load ptr, ptr %4, align 8
  %66 = getelementptr inbounds nuw %struct.assoc_mgr_info_request_msg_t, ptr %65, i32 0, i32 2
  %67 = load ptr, ptr %66, align 8
  %68 = call i32 @list_count(ptr noundef %67)
  store i32 %68, ptr %7, align 4
  %69 = icmp ne i32 %68, 0
  br i1 %69, label %71, label %70

70:                                               ; preds = %64, %55
  store i32 -2, ptr %7, align 4
  br label %71

71:                                               ; preds = %70, %64
  %72 = load i32, ptr %7, align 4
  %73 = load ptr, ptr %5, align 8
  call void @pack32(i32 noundef %72, ptr noundef %73)
  %74 = load i32, ptr %7, align 4
  %75 = icmp ne i32 %74, -2
  br i1 %75, label %76, label %102

76:                                               ; preds = %71
  %77 = load ptr, ptr %4, align 8
  %78 = getelementptr inbounds nuw %struct.assoc_mgr_info_request_msg_t, ptr %77, i32 0, i32 2
  %79 = load ptr, ptr %78, align 8
  %80 = call ptr @list_iterator_create(ptr noundef %79)
  store ptr %80, ptr %9, align 8
  br label %81

81:                                               ; preds = %99, %76
  %82 = load ptr, ptr %9, align 8
  %83 = call ptr @list_next(ptr noundef %82)
  store ptr %83, ptr %8, align 8
  %84 = icmp ne ptr %83, null
  br i1 %84, label %85, label %100

85:                                               ; preds = %81
  br label %86

86:                                               ; preds = %85
  call void @llvm.lifetime.start.p0(i64 4, ptr %11) #6
  store i32 0, ptr %11, align 4
  %87 = load ptr, ptr %8, align 8
  %88 = icmp ne ptr %87, null
  br i1 %88, label %89, label %94

89:                                               ; preds = %86
  %90 = load ptr, ptr %8, align 8
  %91 = call i64 @strlen(ptr noundef %90) #7
  %92 = trunc i64 %91 to i32
  %93 = add i32 %92, 1
  store i32 %93, ptr %11, align 4
  br label %94

94:                                               ; preds = %89, %86
  %95 = load ptr, ptr %8, align 8
  %96 = load i32, ptr %11, align 4
  %97 = load ptr, ptr %5, align 8
  call void @packmem(ptr noundef %95, i32 noundef %96, ptr noundef %97)
  call void @llvm.lifetime.end.p0(i64 4, ptr %11) #6
  br label %98

98:                                               ; preds = %94
  br label %99

99:                                               ; preds = %98
  br label %81, !llvm.loop !57

100:                                              ; preds = %81
  %101 = load ptr, ptr %9, align 8
  call void @list_iterator_destroy(ptr noundef %101)
  br label %102

102:                                              ; preds = %100, %71
  %103 = load ptr, ptr %4, align 8
  %104 = getelementptr inbounds nuw %struct.assoc_mgr_info_request_msg_t, ptr %103, i32 0, i32 3
  %105 = load ptr, ptr %104, align 8
  %106 = icmp ne ptr %105, null
  br i1 %106, label %107, label %113

107:                                              ; preds = %102
  %108 = load ptr, ptr %4, align 8
  %109 = getelementptr inbounds nuw %struct.assoc_mgr_info_request_msg_t, ptr %108, i32 0, i32 3
  %110 = load ptr, ptr %109, align 8
  %111 = call i32 @list_count(ptr noundef %110)
  store i32 %111, ptr %7, align 4
  %112 = icmp ne i32 %111, 0
  br i1 %112, label %114, label %113

113:                                              ; preds = %107, %102
  store i32 -2, ptr %7, align 4
  br label %114

114:                                              ; preds = %113, %107
  %115 = load i32, ptr %7, align 4
  %116 = load ptr, ptr %5, align 8
  call void @pack32(i32 noundef %115, ptr noundef %116)
  %117 = load i32, ptr %7, align 4
  %118 = icmp ne i32 %117, -2
  br i1 %118, label %119, label %145

119:                                              ; preds = %114
  %120 = load ptr, ptr %4, align 8
  %121 = getelementptr inbounds nuw %struct.assoc_mgr_info_request_msg_t, ptr %120, i32 0, i32 3
  %122 = load ptr, ptr %121, align 8
  %123 = call ptr @list_iterator_create(ptr noundef %122)
  store ptr %123, ptr %9, align 8
  br label %124

124:                                              ; preds = %142, %119
  %125 = load ptr, ptr %9, align 8
  %126 = call ptr @list_next(ptr noundef %125)
  store ptr %126, ptr %8, align 8
  %127 = icmp ne ptr %126, null
  br i1 %127, label %128, label %143

128:                                              ; preds = %124
  br label %129

129:                                              ; preds = %128
  call void @llvm.lifetime.start.p0(i64 4, ptr %12) #6
  store i32 0, ptr %12, align 4
  %130 = load ptr, ptr %8, align 8
  %131 = icmp ne ptr %130, null
  br i1 %131, label %132, label %137

132:                                              ; preds = %129
  %133 = load ptr, ptr %8, align 8
  %134 = call i64 @strlen(ptr noundef %133) #7
  %135 = trunc i64 %134 to i32
  %136 = add i32 %135, 1
  store i32 %136, ptr %12, align 4
  br label %137

137:                                              ; preds = %132, %129
  %138 = load ptr, ptr %8, align 8
  %139 = load i32, ptr %12, align 4
  %140 = load ptr, ptr %5, align 8
  call void @packmem(ptr noundef %138, i32 noundef %139, ptr noundef %140)
  call void @llvm.lifetime.end.p0(i64 4, ptr %12) #6
  br label %141

141:                                              ; preds = %137
  br label %142

142:                                              ; preds = %141
  br label %124, !llvm.loop !58

143:                                              ; preds = %124
  %144 = load ptr, ptr %9, align 8
  call void @list_iterator_destroy(ptr noundef %144)
  br label %145

145:                                              ; preds = %143, %114
  call void @llvm.lifetime.end.p0(i64 8, ptr %9) #6
  call void @llvm.lifetime.end.p0(i64 8, ptr %8) #6
  call void @llvm.lifetime.end.p0(i64 4, ptr %7) #6
  ret void
}