; Function Attrs: nounwind uwtable
define internal fastcc void @_pack_assoc_mgr_info_request_msg(ptr noundef readonly captures(none) %0, ptr noundef %1) unnamed_addr #0 {
  %3 = load ptr, ptr %0, align 8
  %.not = icmp eq ptr %3, null
  br i1 %.not, label %.thread, label %4

4:                                                ; preds = %2
  %5 = tail call i32 @list_count(ptr noundef nonnull %3) #7
  %.not52 = icmp eq i32 %5, 0
  br i1 %.not52, label %.thread, label %6

.thread:                                          ; preds = %2, %4
  tail call void @pack32(i32 noundef -2, ptr noundef %1) #7
  br label %16

6:                                                ; preds = %4
  tail call void @pack32(i32 noundef %5, ptr noundef %1) #7
  %.not53 = icmp eq i32 %5, -2
  br i1 %.not53, label %16, label %7

7:                                                ; preds = %6
  %8 = load ptr, ptr %0, align 8
  %9 = tail call ptr @list_iterator_create(ptr noundef %8) #7
  %10 = tail call ptr @list_next(ptr noundef %9) #7
  %.not5471 = icmp eq ptr %10, null
  br i1 %.not5471, label %._crit_edge, label %.lr.ph

.lr.ph:                                           ; preds = %7, %.lr.ph
  %11 = phi ptr [ %15, %.lr.ph ], [ %10, %7 ]
  %12 = tail call i64 @strlen(ptr noundef nonnull dereferenceable(1) %11) #8
  %13 = trunc i64 %12 to i32
  %14 = add i32 %13, 1
  tail call void @packmem(ptr noundef nonnull %11, i32 noundef %14, ptr noundef %1) #7
  %15 = tail call ptr @list_next(ptr noundef %9) #7
  %.not54 = icmp eq ptr %15, null
  br i1 %.not54, label %._crit_edge, label %.lr.ph, !llvm.loop !57

._crit_edge:                                      ; preds = %.lr.ph, %7
  tail call void @list_iterator_destroy(ptr noundef %9) #7
  br label %16

16:                                               ; preds = %.thread, %._crit_edge, %6
  %17 = getelementptr inbounds nuw i8, ptr %0, i64 8
  %18 = load i32, ptr %17, align 8
  tail call void @pack32(i32 noundef %18, ptr noundef %1) #7
  %19 = getelementptr inbounds nuw i8, ptr %0, i64 16
  %20 = load ptr, ptr %19, align 8
  %.not55 = icmp eq ptr %20, null
  br i1 %.not55, label %.thread65, label %21

21:                                               ; preds = %16
  %22 = tail call i32 @list_count(ptr noundef nonnull %20) #7
  %.not56 = icmp eq i32 %22, 0
  br i1 %.not56, label %.thread65, label %23

.thread65:                                        ; preds = %16, %21
  tail call void @pack32(i32 noundef -2, ptr noundef %1) #7
  br label %33

23:                                               ; preds = %21
  tail call void @pack32(i32 noundef %22, ptr noundef %1) #7
  %.not57 = icmp eq i32 %22, -2
  br i1 %.not57, label %33, label %24

24:                                               ; preds = %23
  %25 = load ptr, ptr %19, align 8
  %26 = tail call ptr @list_iterator_create(ptr noundef %25) #7
  %27 = tail call ptr @list_next(ptr noundef %26) #7
  %.not5872 = icmp eq ptr %27, null
  br i1 %.not5872, label %._crit_edge75, label %.lr.ph74

.lr.ph74:                                         ; preds = %24, %.lr.ph74
  %28 = phi ptr [ %32, %.lr.ph74 ], [ %27, %24 ]
  %29 = tail call i64 @strlen(ptr noundef nonnull dereferenceable(1) %28) #8
  %30 = trunc i64 %29 to i32
  %31 = add i32 %30, 1
  tail call void @packmem(ptr noundef nonnull %28, i32 noundef %31, ptr noundef %1) #7
  %32 = tail call ptr @list_next(ptr noundef %26) #7
  %.not58 = icmp eq ptr %32, null
  br i1 %.not58, label %._crit_edge75, label %.lr.ph74, !llvm.loop !58

._crit_edge75:                                    ; preds = %.lr.ph74, %24
  tail call void @list_iterator_destroy(ptr noundef %26) #7
  br label %33

33:                                               ; preds = %.thread65, %._crit_edge75, %23
  %34 = getelementptr inbounds nuw i8, ptr %0, i64 24
  %35 = load ptr, ptr %34, align 8
  %.not59 = icmp eq ptr %35, null
  br i1 %.not59, label %.thread68, label %36

36:                                               ; preds = %33
  %37 = tail call i32 @list_count(ptr noundef nonnull %35) #7
  %.not60 = icmp eq i32 %37, 0
  br i1 %.not60, label %.thread68, label %38

.thread68:                                        ; preds = %33, %36
  tail call void @pack32(i32 noundef -2, ptr noundef %1) #7
  br label %48

38:                                               ; preds = %36
  tail call void @pack32(i32 noundef %37, ptr noundef %1) #7
  %.not61 = icmp eq i32 %37, -2
  br i1 %.not61, label %48, label %39

39:                                               ; preds = %38
  %40 = load ptr, ptr %34, align 8
  %41 = tail call ptr @list_iterator_create(ptr noundef %40) #7
  %42 = tail call ptr @list_next(ptr noundef %41) #7
  %.not6276 = icmp eq ptr %42, null
  br i1 %.not6276, label %._crit_edge79, label %.lr.ph78

.lr.ph78:                                         ; preds = %39, %.lr.ph78
  %43 = phi ptr [ %47, %.lr.ph78 ], [ %42, %39 ]
  %44 = tail call i64 @strlen(ptr noundef nonnull dereferenceable(1) %43) #8
  %45 = trunc i64 %44 to i32
  %46 = add i32 %45, 1
  tail call void @packmem(ptr noundef nonnull %43, i32 noundef %46, ptr noundef %1) #7
  %47 = tail call ptr @list_next(ptr noundef %41) #7
  %.not62 = icmp eq ptr %47, null
  br i1 %.not62, label %._crit_edge79, label %.lr.ph78, !llvm.loop !59

._crit_edge79:                                    ; preds = %.lr.ph78, %39
  tail call void @list_iterator_destroy(ptr noundef %41) #7
  br label %48

48:                                               ; preds = %.thread68, %._crit_edge79, %38
  ret void
}